; Function Attrs: mustprogress nofree norecurse nosync nounwind willreturn memory(read, inaccessiblemem: none) uwtable
define hidden noundef zeroext i1 @_ZNK2lp10lar_solver15column_is_fixedEj(ptr noundef nonnull readonly align 8 captures(none) dereferenceable(2128) %0, i32 noundef %1) local_unnamed_addr #16 align 2 {
  %3 = getelementptr inbounds nuw i8, ptr %0, i64 576
  %4 = load ptr, ptr %3, align 8, !tbaa !398
  %5 = zext i32 %1 to i64
  %6 = getelementptr inbounds nuw i32, ptr %4, i64 %5
  %7 = load i32, ptr %6, align 4, !tbaa !442
  %8 = icmp eq i32 %7, 4
  ret i1 %8
}